target datalayout = "e-m:e-p270:32:32-p271:32:32-p272:64:64-i64:64-i128:128-f80:128-n8:16:32:64-S128"
target triple = "x86_64-pc-linux-gnu"

%struct.If_Obj_t_ = type { i32, i32, i32, i32, i32, i32, ptr, ptr, ptr, float, float, float, %union.anon, ptr, %struct.If_Cut_t_ }
%union.anon = type { ptr }
%struct.If_Cut_t_ = type <{ float, float, float, float, i32, i32, i32, i64, [0 x i32] }>
%struct.Vec_Ptr_t_ = type { i32, i32, ptr }
%struct.If_Man_t_ = type { ptr, ptr, ptr, ptr, ptr, ptr, ptr, ptr, [5 x i32], i32, float, float, float, float, i32, float, i32, i32, [4 x ptr], ptr, i32, i32, i32, ptr, [3 x [32 x i32]], i32, i32, i32, ptr, ptr, ptr, ptr, ptr, ptr, ptr, i32, i32, i32, [16 x i32], i32, i32, i32, i32, ptr, ptr, ptr, ptr, ptr, i32, i32, [32 x i32], [32 x i32], i32, i32, i32, i32, ptr, [16 x ptr], [16 x ptr], [16 x ptr], [16 x ptr], [16 x ptr], [16 x ptr], [16 x ptr], ptr, ptr, ptr, ptr, [32 x i8], i32, i32, i32, [6 x i64], [2 x i32], [2 x i32], ptr, [15 x i32], ptr, ptr, ptr, [16 x i32], ptr, ptr, ptr, ptr, [2 x i32], [2 x i32], [2 x ptr], ptr }

; Function Attrs: inlinehint nounwind uwtable
define internal ptr @Vec_PtrEntry(ptr noundef %0, i32 noundef %1) #2 {
  %3 = alloca ptr, align 8
  %4 = alloca i32, align 4
  store ptr %0, ptr %3, align 8, !tbaa !10
  store i32 %1, ptr %4, align 4, !tbaa !23
  %5 = load ptr, ptr %3, align 8, !tbaa !10
  %6 = getelementptr inbounds nuw %struct.Vec_Ptr_t_, ptr %5, i32 0, i32 2
  %7 = load ptr, ptr %6, align 8, !tbaa !28
  %8 = load i32, ptr %4, align 4, !tbaa !23
  %9 = sext i32 %8 to i64
  %10 = getelementptr inbounds ptr, ptr %7, i64 %9
  %11 = load ptr, ptr %10, align 8, !tbaa !24
  ret ptr %11
}

; Function Attrs: inlinehint nounwind uwtable
define internal i32 @Vec_PtrSize(ptr noundef %0) #2 {
  %2 = alloca ptr, align 8
  store ptr %0, ptr %2, align 8, !tbaa !10
  %3 = load ptr, ptr %2, align 8, !tbaa !10
  %4 = getelementptr inbounds nuw %struct.Vec_Ptr_t_, ptr %3, i32 0, i32 1
  %5 = load i32, ptr %4, align 4, !tbaa !25
  ret i32 %5
}

; Function Attrs: inlinehint nounwind uwtable
define internal void @Vec_PtrClear(ptr noundef %0) #2 {
  %2 = alloca ptr, align 8
  store ptr %0, ptr %2, align 8, !tbaa !10
  %3 = load ptr, ptr %2, align 8, !tbaa !10
  %4 = getelementptr inbounds nuw %struct.Vec_Ptr_t_, ptr %3, i32 0, i32 1
  store i32 0, ptr %4, align 4, !tbaa !25
  ret void
}

; Function Attrs: inlinehint nounwind uwtable
define internal ptr @Vec_PtrAlloc(i32 noundef %0) #2 {
  %2 = alloca i32, align 4
  %3 = alloca ptr, align 8
  store i32 %0, ptr %2, align 4, !tbaa !23
  call void @llvm.lifetime.start.p0(i64 8, ptr %3) #9
  %4 = call noalias ptr @malloc(i64 noundef 16) #11
  store ptr %4, ptr %3, align 8, !tbaa !10
  %5 = load i32, ptr %2, align 4, !tbaa !23
  %6 = icmp sgt i32 %5, 0
  br i1 %6, label %7, label %11

7:                                                ; preds = %1
  %8 = load i32, ptr %2, align 4, !tbaa !23
  %9 = icmp slt i32 %8, 8
  br i1 %9, label %10, label %11

10:                                               ; preds = %7
  store i32 8, ptr %2, align 4, !tbaa !23
  br label %11

11:                                               ; preds = %10, %7, %1
  %12 = load ptr, ptr %3, align 8, !tbaa !10
  %13 = getelementptr inbounds nuw %struct.Vec_Ptr_t_, ptr %12, i32 0, i32 1
  store i32 0, ptr %13, align 4, !tbaa !25
  %14 = load i32, ptr %2, align 4, !tbaa !23
  %15 = load ptr, ptr %3, align 8, !tbaa !10
  %16 = getelementptr inbounds nuw %struct.Vec_Ptr_t_, ptr %15, i32 0, i32 0
  store i32 %14, ptr %16, align 8, !tbaa !27
  %17 = load ptr, ptr %3, align 8, !tbaa !10
  %18 = getelementptr inbounds nuw %struct.Vec_Ptr_t_, ptr %17, i32 0, i32 0
  %19 = load i32, ptr %18, align 8, !tbaa !27
  %20 = icmp ne i32 %19, 0
  br i1 %20, label %21, label %28

21:                                               ; preds = %11
  %22 = load ptr, ptr %3, align 8, !tbaa !10
  %23 = getelementptr inbounds nuw %struct.Vec_Ptr_t_, ptr %22, i32 0, i32 0
  %24 = load i32, ptr %23, align 8, !tbaa !27
  %25 = sext i32 %24 to i64
  %26 = mul i64 8, %25
  %27 = call noalias ptr @malloc(i64 noundef %26) #11
  br label %29

28:                                               ; preds = %11
  br label %29

29:                                               ; preds = %28, %21
  %30 = phi ptr [ %27, %21 ], [ null, %28 ]
  %31 = load ptr, ptr %3, align 8, !tbaa !10
  %32 = getelementptr inbounds nuw %struct.Vec_Ptr_t_, ptr %31, i32 0, i32 2
  store ptr %30, ptr %32, align 8, !tbaa !28
  %33 = load ptr, ptr %3, align 8, !tbaa !10
  call void @llvm.lifetime.end.p0(i64 8, ptr %3) #9
  ret ptr %33
}

; Function Attrs: inlinehint nounwind uwtable
define internal void @If_CutSetDataInt(ptr noundef %0, i32 noundef %1) #2 {
  %3 = alloca ptr, align 8
  %4 = alloca i32, align 4
  store ptr %0, ptr %3, align 8, !tbaa !12
  store i32 %1, ptr %4, align 4, !tbaa !23
  %5 = load i32, ptr %4, align 4, !tbaa !23
  %6 = load ptr, ptr %3, align 8, !tbaa !12
  store i32 %5, ptr %6, align 4, !tbaa !23
  ret void
}

; Function Attrs: inlinehint nounwind uwtable
define internal ptr @If_ObjCutBest(ptr noundef %0) #2 {
  %2 = alloca ptr, align 8
  store ptr %0, ptr %2, align 8, !tbaa !8
  %3 = load ptr, ptr %2, align 8, !tbaa !8
  %4 = getelementptr inbounds nuw %struct.If_Obj_t_, ptr %3, i32 0, i32 14
  ret ptr %4
}

; Function Attrs: inlinehint nounwind uwtable
define internal ptr @If_ManObj(ptr noundef %0, i32 noundef %1) #2 {
  %3 = alloca ptr, align 8
  %4 = alloca i32, align 4
  store ptr %0, ptr %3, align 8, !tbaa !3
  store i32 %1, ptr %4, align 4, !tbaa !23
  %5 = load ptr, ptr %3, align 8, !tbaa !3
  %6 = getelementptr inbounds nuw %struct.If_Man_t_, ptr %5, i32 0, i32 5
  %7 = load ptr, ptr %6, align 8, !tbaa !45
  %8 = load i32, ptr %4, align 4, !tbaa !23
  %9 = call ptr @Vec_PtrEntry(ptr noundef %7, i32 noundef %8)
  ret ptr %9
}

; Function Attrs: nounwind uwtable
define ptr @If_ManConeCollect(ptr noundef %0, ptr noundef %1, ptr noundef %2) #0 {
  %4 = alloca ptr, align 8
  %5 = alloca ptr, align 8
  %6 = alloca ptr, align 8
  %7 = alloca ptr, align 8
  %8 = alloca ptr, align 8
  %9 = alloca i32, align 4
  %10 = alloca i32, align 4
  store ptr %0, ptr %4, align 8, !tbaa !3
  store ptr %1, ptr %5, align 8, !tbaa !8
  store ptr %2, ptr %6, align 8, !tbaa !12
  call void @llvm.lifetime.start.p0(i64 8, ptr %7) #9
  call void @llvm.lifetime.start.p0(i64 8, ptr %8) #9
  call void @llvm.lifetime.start.p0(i64 4, ptr %9) #9
  call void @llvm.lifetime.start.p0(i64 4, ptr %10) #9
  store i32 0, ptr %9, align 4, !tbaa !23
  br label %11

11:                                               ; preds = %35, %3
  %12 = load i32, ptr %9, align 4, !tbaa !23
  %13 = load ptr, ptr %6, align 8, !tbaa !12
  %14 = getelementptr inbounds nuw %struct.If_Cut_t_, ptr %13, i32 0, i32 7
  %15 = load i64, ptr %14, align 4
  %16 = lshr i64 %15, 24
  %17 = and i64 %16, 255
  %18 = trunc i64 %17 to i32
  %19 = icmp slt i32 %12, %18
  br i1 %19, label %20, label %30

20:                                               ; preds = %11
  %21 = load ptr, ptr %4, align 8, !tbaa !3
  %22 = load ptr, ptr %6, align 8, !tbaa !12
  %23 = getelementptr inbounds nuw %struct.If_Cut_t_, ptr %22, i32 0, i32 8
  %24 = load i32, ptr %9, align 4, !tbaa !23
  %25 = sext i32 %24 to i64
  %26 = getelementptr inbounds [0 x i32], ptr %23, i64 0, i64 %25
  %27 = load i32, ptr %26, align 4, !tbaa !23
  %28 = call ptr @If_ManObj(ptr noundef %21, i32 noundef %27)
  store ptr %28, ptr %8, align 8, !tbaa !8
  %29 = icmp ne ptr %28, null
  br label %30

30:                                               ; preds = %20, %11
  %31 = phi i1 [ false, %11 ], [ %29, %20 ]
  br i1 %31, label %32, label %38

32:                                               ; preds = %30
  %33 = load ptr, ptr %8, align 8, !tbaa !8
  %34 = call ptr @If_ObjCutBest(ptr noundef %33)
  call void @If_CutSetDataInt(ptr noundef %34, i32 noundef 1)
  br label %35

35:                                               ; preds = %32
  %36 = load i32, ptr %9, align 4, !tbaa !23
  %37 = add nsw i32 %36, 1
  store i32 %37, ptr %9, align 4, !tbaa !23
  br label %11, !llvm.loop !64

38:                                               ; preds = %30
  %39 = call ptr @Vec_PtrAlloc(i32 noundef 100)
  store ptr %39, ptr %7, align 8, !tbaa !10
  %40 = load ptr, ptr %4, align 8, !tbaa !3
  %41 = getelementptr inbounds nuw %struct.If_Man_t_, ptr %40, i32 0, i32 7
  %42 = load ptr, ptr %41, align 8, !tbaa !29
  call void @Vec_PtrClear(ptr noundef %42)
  %43 = load ptr, ptr %4, align 8, !tbaa !3
  %44 = load ptr, ptr %5, align 8, !tbaa !8
  %45 = load ptr, ptr %4, align 8, !tbaa !3
  %46 = getelementptr inbounds nuw %struct.If_Man_t_, ptr %45, i32 0, i32 7
  %47 = load ptr, ptr %46, align 8, !tbaa !29
  %48 = load ptr, ptr %7, align 8, !tbaa !10
  %49 = call i32 @If_ManConeCollect_rec(ptr noundef %43, ptr noundef %44, ptr noundef %47, ptr noundef %48)
  store i32 %49, ptr %10, align 4, !tbaa !23
  store i32 0, ptr %9, align 4, !tbaa !23
  br label %50

50:                                               ; preds = %74, %38
  %51 = load i32, ptr %9, align 4, !tbaa !23
  %52 = load ptr, ptr %6, align 8, !tbaa !12
  %53 = getelementptr inbounds nuw %struct.If_Cut_t_, ptr %52, i32 0, i32 7
  %54 = load i64, ptr %53, align 4
  %55 = lshr i64 %54, 24
  %56 = and i64 %55, 255
  %57 = trunc i64 %56 to i32
  %58 = icmp slt i32 %51, %57
  br i1 %58, label %59, label %69

59:                                               ; preds = %50
  %60 = load ptr, ptr %4, align 8, !tbaa !3
  %61 = load ptr, ptr %6, align 8, !tbaa !12
  %62 = getelementptr inbounds nuw %struct.If_Cut_t_, ptr %61, i32 0, i32 8
  %63 = load i32, ptr %9, align 4, !tbaa !23
  %64 = sext i32 %63 to i64
  %65 = getelementptr inbounds [0 x i32], ptr %62, i64 0, i64 %64
  %66 = load i32, ptr %65, align 4, !tbaa !23
  %67 = call ptr @If_ManObj(ptr noundef %60, i32 noundef %66)
  store ptr %67, ptr %8, align 8, !tbaa !8
  %68 = icmp ne ptr %67, null
  br label %69

69:                                               ; preds = %59, %50
  %70 = phi i1 [ false, %50 ], [ %68, %59 ]
  br i1 %70, label %71, label %77

71:                                               ; preds = %69
  %72 = load ptr, ptr %8, align 8, !tbaa !8
  %73 = call ptr @If_ObjCutBest(ptr noundef %72)
  call void @If_CutSetDataInt(ptr noundef %73, i32 noundef 0)
  br label %74

74:                                               ; preds = %71
  %75 = load i32, ptr %9, align 4, !tbaa !23
  %76 = add nsw i32 %75, 1
  store i32 %76, ptr %9, align 4, !tbaa !23
  br label %50, !llvm.loop !65

77:                                               ; preds = %69
  store i32 0, ptr %9, align 4, !tbaa !23
  br label %78

78:                                               ; preds = %95, %77
  %79 = load i32, ptr %9, align 4, !tbaa !23
  %80 = load ptr, ptr %4, align 8, !tbaa !3
  %81 = getelementptr inbounds nuw %struct.If_Man_t_, ptr %80, i32 0, i32 7
  %82 = load ptr, ptr %81, align 8, !tbaa !29
  %83 = call i32 @Vec_PtrSize(ptr noundef %82)
  %84 = icmp slt i32 %79, %83
  br i1 %84, label %85, label %91

85:                                               ; preds = %78
  %86 = load ptr, ptr %4, align 8, !tbaa !3
  %87 = getelementptr inbounds nuw %struct.If_Man_t_, ptr %86, i32 0, i32 7
  %88 = load ptr, ptr %87, align 8, !tbaa !29
  %89 = load i32, ptr %9, align 4, !tbaa !23
  %90 = call ptr @Vec_PtrEntry(ptr noundef %88, i32 noundef %89)
  store ptr %90, ptr %6, align 8, !tbaa !12
  br label %91

91:                                               ; preds = %85, %78
  %92 = phi i1 [ false, %78 ], [ true, %85 ]
  br i1 %92, label %93, label %98

93:                                               ; preds = %91
  %94 = load ptr, ptr %6, align 8, !tbaa !12
  call void @If_CutSetDataInt(ptr noundef %94, i32 noundef 0)
  br label %95

95:                                               ; preds = %93
  %96 = load i32, ptr %9, align 4, !tbaa !23
  %97 = add nsw i32 %96, 1
  store i32 %97, ptr %9, align 4, !tbaa !23
  br label %78, !llvm.loop !66

98:                                               ; preds = %91
  %99 = load ptr, ptr %7, align 8, !tbaa !10
  call void @llvm.lifetime.end.p0(i64 4, ptr %10) #9
  call void @llvm.lifetime.end.p0(i64 4, ptr %9) #9
  call void @llvm.lifetime.end.p0(i64 8, ptr %8) #9
  call void @llvm.lifetime.end.p0(i64 8, ptr %7) #9
  ret ptr %99
}