; Function Attrs: nounwind uwtable
define noundef ptr @If_ManConeCollect(ptr noundef %0, ptr noundef %1, ptr noundef readonly captures(none) %2) local_unnamed_addr #0 {
  %4 = getelementptr inbounds nuw i8, ptr %2, i64 36
  %5 = getelementptr inbounds nuw i8, ptr %2, i64 28
  %6 = load i64, ptr %5, align 4
  %7 = and i64 %6, 4278190080
  %.not43 = icmp eq i64 %7, 0
  br i1 %.not43, label %.critedge, label %.lr.ph

.lr.ph:                                           ; preds = %3
  %8 = getelementptr i8, ptr %0, i64 40
  %.val34 = load ptr, ptr %8, align 8, !tbaa !38
  %9 = getelementptr i8, ptr %.val34, i64 8
  %.val34.val = load ptr, ptr %9, align 8, !tbaa !11
  br label %10

10:                                               ; preds = %.lr.ph, %16
  %indvars.iv = phi i64 [ 0, %.lr.ph ], [ %indvars.iv.next, %16 ]
  %11 = getelementptr inbounds nuw [0 x i32], ptr %4, i64 0, i64 %indvars.iv
  %12 = load i32, ptr %11, align 4, !tbaa !3
  %13 = sext i32 %12 to i64
  %14 = getelementptr inbounds ptr, ptr %.val34.val, i64 %13
  %15 = load ptr, ptr %14, align 8, !tbaa !12
  %.not = icmp eq ptr %15, null
  br i1 %.not, label %.critedge, label %16

16:                                               ; preds = %10
  %17 = getelementptr inbounds nuw i8, ptr %15, i64 80
  store i32 1, ptr %17, align 4, !tbaa !3
  %indvars.iv.next = add nuw nsw i64 %indvars.iv, 1
  %18 = load i64, ptr %5, align 4
  %19 = lshr i64 %18, 24
  %20 = and i64 %19, 255
  %21 = icmp samesign ult i64 %indvars.iv.next, %20
  br i1 %21, label %10, label %.critedge, !llvm.loop !59

.critedge:                                        ; preds = %10, %16, %3
  %22 = tail call noalias dereferenceable_or_null(16) ptr @malloc(i64 noundef 16) #14
  %23 = getelementptr inbounds nuw i8, ptr %22, i64 4
  store i32 0, ptr %23, align 4, !tbaa !7
  store i32 100, ptr %22, align 8, !tbaa !10
  %24 = tail call noalias dereferenceable_or_null(800) ptr @malloc(i64 noundef 800) #14
  %25 = getelementptr inbounds nuw i8, ptr %22, i64 8
  store ptr %24, ptr %25, align 8, !tbaa !11
  %26 = getelementptr inbounds nuw i8, ptr %0, i64 56
  %27 = load ptr, ptr %26, align 8, !tbaa !22
  %28 = getelementptr inbounds nuw i8, ptr %27, i64 4
  store i32 0, ptr %28, align 4, !tbaa !7
  %29 = tail call i32 @If_ManConeCollect_rec(ptr noundef %0, ptr noundef %1, ptr noundef %27, ptr noundef nonnull %22)
  %30 = load i64, ptr %5, align 4
  %31 = and i64 %30, 4278190080
  %.not44 = icmp eq i64 %31, 0
  br i1 %.not44, label %.critedge2, label %.lr.ph38

.lr.ph38:                                         ; preds = %.critedge
  %32 = getelementptr i8, ptr %0, i64 40
  %.val33 = load ptr, ptr %32, align 8, !tbaa !38
  %33 = getelementptr i8, ptr %.val33, i64 8
  %.val33.val = load ptr, ptr %33, align 8, !tbaa !11
  br label %34

34:                                               ; preds = %.lr.ph38, %40
  %indvars.iv46 = phi i64 [ 0, %.lr.ph38 ], [ %indvars.iv.next47, %40 ]
  %35 = getelementptr inbounds nuw [0 x i32], ptr %4, i64 0, i64 %indvars.iv46
  %36 = load i32, ptr %35, align 4, !tbaa !3
  %37 = sext i32 %36 to i64
  %38 = getelementptr inbounds ptr, ptr %.val33.val, i64 %37
  %39 = load ptr, ptr %38, align 8, !tbaa !12
  %.not31 = icmp eq ptr %39, null
  br i1 %.not31, label %.critedge2, label %40

40:                                               ; preds = %34
  %41 = getelementptr inbounds nuw i8, ptr %39, i64 80
  store i32 0, ptr %41, align 4, !tbaa !3
  %indvars.iv.next47 = add nuw nsw i64 %indvars.iv46, 1
  %42 = load i64, ptr %5, align 4
  %43 = lshr i64 %42, 24
  %44 = and i64 %43, 255
  %45 = icmp samesign ult i64 %indvars.iv.next47, %44
  br i1 %45, label %34, label %.critedge2, !llvm.loop !60

.critedge2:                                       ; preds = %34, %40, %.critedge
  %46 = load ptr, ptr %26, align 8, !tbaa !22
  %47 = getelementptr i8, ptr %46, i64 4
  %.val40 = load i32, ptr %47, align 4, !tbaa !7
  %48 = icmp sgt i32 %.val40, 0
  br i1 %48, label %.lr.ph42, label %.critedge4

.lr.ph42:                                         ; preds = %.critedge2
  %49 = getelementptr i8, ptr %46, i64 8
  %.val32 = load ptr, ptr %49, align 8, !tbaa !11
  br label %50

50:                                               ; preds = %.lr.ph42, %50
  %indvars.iv49 = phi i64 [ 0, %.lr.ph42 ], [ %indvars.iv.next50, %50 ]
  %51 = getelementptr inbounds nuw ptr, ptr %.val32, i64 %indvars.iv49
  %52 = load ptr, ptr %51, align 8, !tbaa !12
  store i32 0, ptr %52, align 4, !tbaa !3
  %indvars.iv.next50 = add nuw nsw i64 %indvars.iv49, 1
  %.val = load i32, ptr %47, align 4, !tbaa !7
  %53 = sext i32 %.val to i64
  %54 = icmp slt i64 %indvars.iv.next50, %53
  br i1 %54, label %50, label %.critedge4, !llvm.loop !61

.critedge4:                                       ; preds = %50, %.critedge2
  ret ptr %22
}